target datalayout = "e-m:e-p270:32:32-p271:32:32-p272:64:64-i64:64-i128:128-f80:128-n8:16:32:64-S128"
target triple = "x86_64-pc-linux-gnu"

@H5T_init_g = external global i8, align 1
@H5_libterm_g = external global i8, align 1

; Function Attrs: nounwind uwtable
define void @H5T__bit_set(ptr noundef %0, i64 noundef %1, i64 noundef %2, i1 noundef zeroext %3) #0 {
  %5 = alloca ptr, align 8
  %6 = alloca i64, align 8
  %7 = alloca i64, align 8
  %8 = alloca i8, align 1
  %9 = alloca i32, align 4
  %10 = alloca i64, align 8
  %11 = alloca i32, align 4
  store ptr %0, ptr %5, align 8, !tbaa !3
  store i64 %1, ptr %6, align 8, !tbaa !8
  store i64 %2, ptr %7, align 8, !tbaa !8
  %12 = zext i1 %3 to i8
  store i8 %12, ptr %8, align 1, !tbaa !10
  call void @llvm.lifetime.start.p0(i64 4, ptr %9) #4
  %13 = load i8, ptr @H5T_init_g, align 1, !tbaa !10, !range !12, !noundef !13
  %14 = trunc i8 %13 to i1
  br i1 %14, label %19, label %15

15:                                               ; preds = %4
  %16 = load i8, ptr @H5_libterm_g, align 1, !tbaa !10, !range !12, !noundef !13
  %17 = trunc i8 %16 to i1
  %18 = xor i1 %17, true
  br label %19

19:                                               ; preds = %15, %4
  %20 = phi i1 [ true, %4 ], [ %18, %15 ]
  %21 = xor i1 %20, true
  %22 = xor i1 %21, true
  %23 = zext i1 %22 to i32
  %24 = sext i32 %23 to i64
  %25 = call i64 @llvm.expect.i64(i64 %24, i64 1)
  %26 = icmp ne i64 %25, 0
  br i1 %26, label %27, label %151

27:                                               ; preds = %19
  %28 = load i64, ptr %6, align 8, !tbaa !8
  %29 = trunc i64 %28 to i32
  %30 = sdiv i32 %29, 8
  store i32 %30, ptr %9, align 4, !tbaa !21
  %31 = load i64, ptr %6, align 8, !tbaa !8
  %32 = urem i64 %31, 8
  store i64 %32, ptr %6, align 8, !tbaa !8
  %33 = load i64, ptr %7, align 8, !tbaa !8
  %34 = icmp ne i64 %33, 0
  br i1 %34, label %35, label %96

35:                                               ; preds = %27
  %36 = load i64, ptr %6, align 8, !tbaa !8
  %37 = urem i64 %36, 8
  %38 = icmp ne i64 %37, 0
  br i1 %38, label %39, label %96

39:                                               ; preds = %35
  call void @llvm.lifetime.start.p0(i64 8, ptr %10) #4
  %40 = load i64, ptr %7, align 8, !tbaa !8
  %41 = load i64, ptr %6, align 8, !tbaa !8
  %42 = sub i64 8, %41
  %43 = icmp ult i64 %40, %42
  br i1 %43, label %44, label %46

44:                                               ; preds = %39
  %45 = load i64, ptr %7, align 8, !tbaa !8
  br label %49

46:                                               ; preds = %39
  %47 = load i64, ptr %6, align 8, !tbaa !8
  %48 = sub i64 8, %47
  br label %49

49:                                               ; preds = %46, %44
  %50 = phi i64 [ %45, %44 ], [ %48, %46 ]
  store i64 %50, ptr %10, align 8, !tbaa !8
  call void @llvm.lifetime.start.p0(i64 4, ptr %11) #4
  %51 = load i64, ptr %10, align 8, !tbaa !8
  %52 = trunc i64 %51 to i32
  %53 = shl i32 1, %52
  %54 = sub i32 %53, 1
  store i32 %54, ptr %11, align 4, !tbaa !21
  %55 = load i8, ptr %8, align 1, !tbaa !10, !range !12, !noundef !13
  %56 = trunc i8 %55 to i1
  br i1 %56, label %57, label %74

57:                                               ; preds = %49
  %58 = load ptr, ptr %5, align 8, !tbaa !3
  %59 = load i32, ptr %9, align 4, !tbaa !21
  %60 = sext i32 %59 to i64
  %61 = getelementptr inbounds i8, ptr %58, i64 %60
  %62 = load i8, ptr %61, align 1, !tbaa !14
  %63 = zext i8 %62 to i32
  %64 = load i32, ptr %11, align 4, !tbaa !21
  %65 = load i64, ptr %6, align 8, !tbaa !8
  %66 = trunc i64 %65 to i32
  %67 = shl i32 %64, %66
  %68 = or i32 %63, %67
  %69 = trunc i32 %68 to i8
  %70 = load ptr, ptr %5, align 8, !tbaa !3
  %71 = load i32, ptr %9, align 4, !tbaa !21
  %72 = sext i32 %71 to i64
  %73 = getelementptr inbounds i8, ptr %70, i64 %72
  store i8 %69, ptr %73, align 1, !tbaa !14
  br label %90

74:                                               ; preds = %49
  %75 = load i32, ptr %11, align 4, !tbaa !21
  %76 = load i64, ptr %6, align 8, !tbaa !8
  %77 = trunc i64 %76 to i32
  %78 = shl i32 %75, %77
  %79 = xor i32 %78, -1
  %80 = trunc i32 %79 to i8
  %81 = zext i8 %80 to i32
  %82 = load ptr, ptr %5, align 8, !tbaa !3
  %83 = load i32, ptr %9, align 4, !tbaa !21
  %84 = sext i32 %83 to i64
  %85 = getelementptr inbounds i8, ptr %82, i64 %84
  %86 = load i8, ptr %85, align 1, !tbaa !14
  %87 = zext i8 %86 to i32
  %88 = and i32 %87, %81
  %89 = trunc i32 %88 to i8
  store i8 %89, ptr %85, align 1, !tbaa !14
  br label %90

90:                                               ; preds = %74, %57
  %91 = load i32, ptr %9, align 4, !tbaa !21
  %92 = add nsw i32 %91, 1
  store i32 %92, ptr %9, align 4, !tbaa !21
  %93 = load i64, ptr %10, align 8, !tbaa !8
  %94 = load i64, ptr %7, align 8, !tbaa !8
  %95 = sub i64 %94, %93
  store i64 %95, ptr %7, align 8, !tbaa !8
  call void @llvm.lifetime.end.p0(i64 4, ptr %11) #4
  call void @llvm.lifetime.end.p0(i64 8, ptr %10) #4
  br label %96

96:                                               ; preds = %90, %35, %27
  br label %97

97:                                               ; preds = %100, %96
  %98 = load i64, ptr %7, align 8, !tbaa !8
  %99 = icmp uge i64 %98, 8
  br i1 %99, label %100, label %112

100:                                              ; preds = %97
  %101 = load i8, ptr %8, align 1, !tbaa !10, !range !12, !noundef !13
  %102 = trunc i8 %101 to i1
  %103 = select i1 %102, i32 255, i32 0
  %104 = trunc i32 %103 to i8
  %105 = load ptr, ptr %5, align 8, !tbaa !3
  %106 = load i32, ptr %9, align 4, !tbaa !21
  %107 = add nsw i32 %106, 1
  store i32 %107, ptr %9, align 4, !tbaa !21
  %108 = sext i32 %106 to i64
  %109 = getelementptr inbounds i8, ptr %105, i64 %108
  store i8 %104, ptr %109, align 1, !tbaa !14
  %110 = load i64, ptr %7, align 8, !tbaa !8
  %111 = sub i64 %110, 8
  store i64 %111, ptr %7, align 8, !tbaa !8
  br label %97, !llvm.loop !23

112:                                              ; preds = %97
  %113 = load i64, ptr %7, align 8, !tbaa !8
  %114 = icmp ne i64 %113, 0
  br i1 %114, label %115, label %150

115:                                              ; preds = %112
  %116 = load i8, ptr %8, align 1, !tbaa !10, !range !12, !noundef !13
  %117 = trunc i8 %116 to i1
  br i1 %117, label %118, label %133

118:                                              ; preds = %115
  %119 = load i64, ptr %7, align 8, !tbaa !8
  %120 = trunc i64 %119 to i32
  %121 = shl i32 1, %120
  %122 = sub i32 %121, 1
  %123 = trunc i32 %122 to i8
  %124 = zext i8 %123 to i32
  %125 = load ptr, ptr %5, align 8, !tbaa !3
  %126 = load i32, ptr %9, align 4, !tbaa !21
  %127 = sext i32 %126 to i64
  %128 = getelementptr inbounds i8, ptr %125, i64 %127
  %129 = load i8, ptr %128, align 1, !tbaa !14
  %130 = zext i8 %129 to i32
  %131 = or i32 %130, %124
  %132 = trunc i32 %131 to i8
  store i8 %132, ptr %128, align 1, !tbaa !14
  br label %149

133:                                              ; preds = %115
  %134 = load i64, ptr %7, align 8, !tbaa !8
  %135 = trunc i64 %134 to i32
  %136 = shl i32 1, %135
  %137 = sub i32 %136, 1
  %138 = xor i32 %137, -1
  %139 = trunc i32 %138 to i8
  %140 = zext i8 %139 to i32
  %141 = load ptr, ptr %5, align 8, !tbaa !3
  %142 = load i32, ptr %9, align 4, !tbaa !21
  %143 = sext i32 %142 to i64
  %144 = getelementptr inbounds i8, ptr %141, i64 %143
  %145 = load i8, ptr %144, align 1, !tbaa !14
  %146 = zext i8 %145 to i32
  %147 = and i32 %146, %140
  %148 = trunc i32 %147 to i8
  store i8 %148, ptr %144, align 1, !tbaa !14
  br label %149

149:                                              ; preds = %133, %118
  br label %150

150:                                              ; preds = %149, %112
  br label %151

151:                                              ; preds = %150, %19
  call void @llvm.lifetime.end.p0(i64 4, ptr %9) #4
  ret void
}