; Function Attrs: nofree norecurse nosync nounwind memory(read, argmem: readwrite, inaccessiblemem: none) uwtable
define void @H5T__bit_set(ptr noundef captures(none) %0, i64 noundef %1, i64 noundef %2, i1 noundef zeroext %3) local_unnamed_addr #0 {
  %5 = load i8, ptr @H5T_init_g, align 1, !tbaa !3, !range !7, !noundef !8
  %6 = trunc nuw i8 %5 to i1
  %7 = load i8, ptr @H5_libterm_g, align 1, !range !7
  %8 = trunc nuw i8 %7 to i1
  %9 = xor i1 %8, true
  %10 = select i1 %6, i1 true, i1 %9
  br i1 %10, label %11, label %._crit_edge.thread, !prof !9

11:                                               ; preds = %4
  %12 = trunc i64 %1 to i32
  %13 = sdiv i32 %12, 8
  %14 = and i64 %1, 7
  %.not = icmp eq i64 %2, 0
  br i1 %.not, label %._crit_edge.thread, label %15

15:                                               ; preds = %11
  %.not40 = icmp eq i64 %14, 0
  br i1 %.not40, label %41, label %16

16:                                               ; preds = %15
  %17 = sub nuw nsw i64 8, %14
  %18 = tail call i64 @llvm.umin.i64(i64 %2, i64 %17)
  %19 = trunc nuw nsw i64 %18 to i32
  %notmask = shl nsw i32 -1, %19
  %20 = xor i32 %notmask, -1
  br i1 %3, label %21, label %29

21:                                               ; preds = %16
  %22 = sext i32 %13 to i64
  %23 = getelementptr inbounds i8, ptr %0, i64 %22
  %24 = load i8, ptr %23, align 1, !tbaa !10
  %25 = trunc nuw nsw i64 %14 to i32
  %26 = shl nuw nsw i32 %20, %25
  %27 = trunc i32 %26 to i8
  %28 = or i8 %24, %27
  store i8 %28, ptr %23, align 1, !tbaa !10
  br label %38

29:                                               ; preds = %16
  %30 = trunc nuw nsw i64 %14 to i32
  %31 = shl nuw nsw i32 %20, %30
  %32 = sext i32 %13 to i64
  %33 = getelementptr inbounds i8, ptr %0, i64 %32
  %34 = load i8, ptr %33, align 1, !tbaa !10
  %35 = trunc i32 %31 to i8
  %36 = xor i8 %35, -1
  %37 = and i8 %34, %36
  store i8 %37, ptr %33, align 1, !tbaa !10
  br label %38

38:                                               ; preds = %29, %21
  %39 = add nsw i32 %13, 1
  %40 = sub i64 %2, %18
  br label %41

41:                                               ; preds = %38, %15
  %.035 = phi i32 [ %39, %38 ], [ %13, %15 ]
  %.0 = phi i64 [ %40, %38 ], [ %2, %15 ]
  %42 = icmp ugt i64 %.0, 7
  br i1 %42, label %.lr.ph, label %._crit_edge

.lr.ph:                                           ; preds = %41
  %43 = sext i1 %3 to i8
  %44 = sext i32 %.035 to i64
  %scevgep = getelementptr i8, ptr %0, i64 %44
  %45 = add i64 %.0, -8
  %46 = lshr i64 %45, 3
  %47 = add nuw nsw i64 %46, 1
  tail call void @llvm.memset.p0.i64(ptr noundef nonnull align 1 dereferenceable(1) %scevgep, i8 %43, i64 %47, i1 false), !tbaa !10
  br label %48

48:                                               ; preds = %.lr.ph, %48
  %.145 = phi i64 [ %.0, %.lr.ph ], [ %49, %48 ]
  %49 = add i64 %.145, -8
  %50 = icmp ugt i64 %49, 7
  br i1 %50, label %48, label %._crit_edge.loopexit, !llvm.loop !18

._crit_edge.loopexit:                             ; preds = %48
  %51 = trunc i64 %46 to i32
  %52 = add i32 %.035, %51
  %53 = add i32 %52, 1
  br label %._crit_edge

._crit_edge:                                      ; preds = %._crit_edge.loopexit, %41
  %.136.lcssa = phi i32 [ %.035, %41 ], [ %53, %._crit_edge.loopexit ]
  %.1.lcssa = phi i64 [ %.0, %41 ], [ %49, %._crit_edge.loopexit ]
  %.not41 = icmp eq i64 %.1.lcssa, 0
  br i1 %.not41, label %._crit_edge.thread, label %._crit_edge.thread.sink.split

._crit_edge.thread.sink.split:                    ; preds = %._crit_edge
  %54 = trunc nuw i64 %.1.lcssa to i8
  %notmask43 = shl nsw i8 -1, %54
  %55 = sext i32 %.136.lcssa to i64
  %56 = getelementptr inbounds i8, ptr %0, i64 %55
  %57 = load i8, ptr %56, align 1, !tbaa !10
  %58 = and i8 %57, %notmask43
  %59 = xor i8 %notmask43, -1
  %60 = or i8 %57, %59
  %.sink = select i1 %3, i8 %60, i8 %58
  store i8 %.sink, ptr %56, align 1, !tbaa !10
  br label %._crit_edge.thread

._crit_edge.thread:                               ; preds = %._crit_edge.thread.sink.split, %11, %._crit_edge, %4
  ret void
}